target datalayout = "e-m:e-p270:32:32-p271:32:32-p272:64:64-i64:64-i128:128-f80:128-n8:16:32:64-S128"
target triple = "x86_64-pc-linux-gnu"

%"class.spv::spirvbin_t" = type <{ ptr, %"class.std::vector", %"class.std::vector.2", %"class.std::unordered_map", %"class.std::vector.12", %"class.std::unordered_map.17", %"class.std::unordered_map.37", %"class.std::set", %"class.std::unordered_map.37", %"class.std::unordered_map.55", %"class.std::vector", i32, i32, %"class.std::vector.69", i32, i32, i8, [7 x i8] }>
%"class.std::vector.2" = type { %"struct.std::_Vector_base.3" }
%"struct.std::_Vector_base.3" = type { %"struct.std::_Vector_base<std::__cxx11::basic_string<char>, std::allocator<std::__cxx11::basic_string<char>>>::_Vector_impl" }
%"struct.std::_Vector_base<std::__cxx11::basic_string<char>, std::allocator<std::__cxx11::basic_string<char>>>::_Vector_impl" = type { %"struct.std::_Vector_base<std::__cxx11::basic_string<char>, std::allocator<std::__cxx11::basic_string<char>>>::_Vector_impl_data" }
%"struct.std::_Vector_base<std::__cxx11::basic_string<char>, std::allocator<std::__cxx11::basic_string<char>>>::_Vector_impl_data" = type { ptr, ptr, ptr }
%"class.std::unordered_map" = type { %"class.std::_Hashtable" }
%"class.std::_Hashtable" = type { ptr, i64, %"struct.std::__detail::_Hash_node_base", i64, %"struct.std::__detail::_Prime_rehash_policy", ptr }
%"struct.std::__detail::_Hash_node_base" = type { ptr }
%"struct.std::__detail::_Prime_rehash_policy" = type { float, i64 }
%"class.std::vector.12" = type { %"struct.std::_Vector_base.13" }
%"struct.std::_Vector_base.13" = type { %"struct.std::_Vector_base<unsigned long, std::allocator<unsigned long>>::_Vector_impl" }
%"struct.std::_Vector_base<unsigned long, std::allocator<unsigned long>>::_Vector_impl" = type { %"struct.std::_Vector_base<unsigned long, std::allocator<unsigned long>>::_Vector_impl_data" }
%"struct.std::_Vector_base<unsigned long, std::allocator<unsigned long>>::_Vector_impl_data" = type { ptr, ptr, ptr }
%"class.std::unordered_map.17" = type { %"class.std::_Hashtable.18" }
%"class.std::_Hashtable.18" = type { ptr, i64, %"struct.std::__detail::_Hash_node_base", i64, %"struct.std::__detail::_Prime_rehash_policy", ptr }
%"class.std::set" = type { %"class.std::_Rb_tree" }
%"class.std::_Rb_tree" = type { %"struct.std::_Rb_tree<int, int, std::_Identity<int>, std::less<int>>::_Rb_tree_impl" }
%"struct.std::_Rb_tree<int, int, std::_Identity<int>, std::less<int>>::_Rb_tree_impl" = type { %"struct.std::_Rb_tree_key_compare", %"struct.std::_Rb_tree_header" }
%"struct.std::_Rb_tree_key_compare" = type { %"struct.std::less" }
%"struct.std::less" = type { i8 }
%"struct.std::_Rb_tree_header" = type { %"struct.std::_Rb_tree_node_base", i64 }
%"struct.std::_Rb_tree_node_base" = type { i32, ptr, ptr, ptr }
%"class.std::unordered_map.37" = type { %"class.std::_Hashtable.38" }
%"class.std::_Hashtable.38" = type { ptr, i64, %"struct.std::__detail::_Hash_node_base", i64, %"struct.std::__detail::_Prime_rehash_policy", ptr }
%"class.std::unordered_map.55" = type { %"class.std::_Hashtable.56" }
%"class.std::_Hashtable.56" = type { ptr, i64, %"struct.std::__detail::_Hash_node_base", i64, %"struct.std::__detail::_Prime_rehash_policy", ptr }
%"class.std::vector" = type { %"struct.std::_Vector_base" }
%"struct.std::_Vector_base" = type { %"struct.std::_Vector_base<unsigned int, std::allocator<unsigned int>>::_Vector_impl" }
%"struct.std::_Vector_base<unsigned int, std::allocator<unsigned int>>::_Vector_impl" = type { %"struct.std::_Vector_base<unsigned int, std::allocator<unsigned int>>::_Vector_impl_data" }
%"struct.std::_Vector_base<unsigned int, std::allocator<unsigned int>>::_Vector_impl_data" = type { ptr, ptr, ptr }
%"class.std::vector.69" = type { %"struct.std::_Vector_base.70" }
%"struct.std::_Vector_base.70" = type { %"struct.std::_Vector_base<std::pair<unsigned int, unsigned int>, std::allocator<std::pair<unsigned int, unsigned int>>>::_Vector_impl" }
%"struct.std::_Vector_base<std::pair<unsigned int, unsigned int>, std::allocator<std::pair<unsigned int, unsigned int>>>::_Vector_impl" = type { %"struct.std::_Vector_base<std::pair<unsigned int, unsigned int>, std::allocator<std::pair<unsigned int, unsigned int>>>::_Vector_impl_data" }
%"struct.std::_Vector_base<std::pair<unsigned int, unsigned int>, std::allocator<std::pair<unsigned int, unsigned int>>>::_Vector_impl_data" = type { ptr, ptr, ptr }
%class.anon.165 = type { ptr, ptr }

; Function Attrs: mustprogress nounwind uwtable
define linkonce_odr noundef nonnull align 4 dereferenceable(4) ptr @_ZNSt6vectorIjSaIjEEixEm(ptr noundef nonnull align 8 dereferenceable(24) %0, i64 noundef %1) #1 comdat align 2 {
  %3 = alloca ptr, align 8
  %4 = alloca i64, align 8
  store ptr %0, ptr %3, align 8
  store i64 %1, ptr %4, align 8
  %5 = load ptr, ptr %3, align 8
  %6 = getelementptr inbounds %"struct.std::_Vector_base", ptr %5, i32 0, i32 0
  %7 = getelementptr inbounds %"struct.std::_Vector_base<unsigned int, std::allocator<unsigned int>>::_Vector_impl_data", ptr %6, i32 0, i32 0
  %8 = load ptr, ptr %7, align 8
  %9 = load i64, ptr %4, align 8
  %10 = getelementptr inbounds i32, ptr %8, i64 %9
  ret ptr %10
}

; Function Attrs: mustprogress nounwind uwtable
define linkonce_odr noundef nonnull align 4 dereferenceable(4) ptr @_ZNSt13unordered_mapIjiSt4hashIjESt8equal_toIjESaISt4pairIKjiEEEixERS5_(ptr noundef nonnull align 8 dereferenceable(56) %0, ptr noundef nonnull align 4 dereferenceable(4) %1) #1 comdat align 2 {
  %3 = alloca ptr, align 8
  %4 = alloca ptr, align 8
  store ptr %0, ptr %3, align 8
  store ptr %1, ptr %4, align 8
  %5 = load ptr, ptr %3, align 8
  %6 = getelementptr inbounds %"class.std::unordered_map.37", ptr %5, i32 0, i32 0
  %7 = load ptr, ptr %4, align 8
  %8 = call noundef nonnull align 4 dereferenceable(4) ptr @_ZNSt8__detail9_Map_baseIjSt4pairIKjiESaIS3_ENS_10_Select1stESt8equal_toIjESt4hashIjENS_18_Mod_range_hashingENS_20_Default_ranged_hashENS_20_Prime_rehash_policyENS_17_Hashtable_traitsILb0ELb0ELb1EEELb1EEixERS2_(ptr noundef nonnull align 1 dereferenceable(1) %6, ptr noundef nonnull align 4 dereferenceable(4) %7)
  ret ptr %8
}

; Function Attrs: mustprogress nounwind uwtable
define linkonce_odr noundef nonnull align 4 dereferenceable(4) ptr @_ZN3spv10spirvbin_t4asIdEj(ptr noundef nonnull align 8 dereferenceable(473) %0, i32 noundef %1) #1 comdat align 2 {
  %3 = alloca ptr, align 8
  %4 = alloca i32, align 4
  store ptr %0, ptr %3, align 8
  store i32 %1, ptr %4, align 4
  %5 = load ptr, ptr %3, align 8
  %6 = getelementptr inbounds %"class.spv::spirvbin_t", ptr %5, i32 0, i32 1
  %7 = load i32, ptr %4, align 4
  %8 = zext i32 %7 to i64
  %9 = call noundef nonnull align 4 dereferenceable(4) ptr @_ZNSt6vectorIjSaIjEEixEm(ptr noundef nonnull align 8 dereferenceable(24) %6, i64 noundef %8) #2
  ret ptr %9
}

; Function Attrs: mustprogress nounwind uwtable
define internal noundef zeroext i1 @"_ZZN3spv10spirvbin_t7dceVarsEvENK3$_2clENS_2OpEj"(ptr noundef nonnull align 8 dereferenceable(16) %0, i32 noundef %1, i32 noundef %2) #1 align 2 {
  %4 = alloca ptr, align 8
  %5 = alloca i32, align 4
  %6 = alloca i32, align 4
  %7 = alloca i32, align 4
  store ptr %0, ptr %4, align 8
  store i32 %1, ptr %5, align 4
  store i32 %2, ptr %6, align 4
  %8 = load ptr, ptr %4, align 8
  %9 = getelementptr inbounds %class.anon.165, ptr %8, i32 0, i32 0
  %10 = load ptr, ptr %9, align 8
  store i32 0, ptr %7, align 4
  %11 = load i32, ptr %5, align 4
  %12 = icmp eq i32 %11, 59
  br i1 %12, label %13, label %18

13:                                               ; preds = %3
  %14 = load i32, ptr %6, align 4
  %15 = add i32 %14, 2
  %16 = call noundef nonnull align 4 dereferenceable(4) ptr @_ZN3spv10spirvbin_t4asIdEj(ptr noundef nonnull align 8 dereferenceable(473) %10, i32 noundef %15)
  %17 = load i32, ptr %16, align 4
  store i32 %17, ptr %7, align 4
  br label %18

18:                                               ; preds = %13, %3
  %19 = load i32, ptr %5, align 4
  %20 = icmp eq i32 %19, 71
  br i1 %20, label %24, label %21

21:                                               ; preds = %18
  %22 = load i32, ptr %5, align 4
  %23 = icmp eq i32 %22, 5
  br i1 %23, label %24, label %29

24:                                               ; preds = %21, %18
  %25 = load i32, ptr %6, align 4
  %26 = add i32 %25, 1
  %27 = call noundef nonnull align 4 dereferenceable(4) ptr @_ZN3spv10spirvbin_t4asIdEj(ptr noundef nonnull align 8 dereferenceable(473) %10, i32 noundef %26)
  %28 = load i32, ptr %27, align 4
  store i32 %28, ptr %7, align 4
  br label %29

29:                                               ; preds = %24, %21
  %30 = load i32, ptr %7, align 4
  %31 = icmp ne i32 %30, 0
  br i1 %31, label %32, label %40

32:                                               ; preds = %29
  %33 = getelementptr inbounds %class.anon.165, ptr %8, i32 0, i32 1
  %34 = load ptr, ptr %33, align 8
  %35 = call noundef nonnull align 4 dereferenceable(4) ptr @_ZNSt13unordered_mapIjiSt4hashIjESt8equal_toIjESaISt4pairIKjiEEEixERS5_(ptr noundef nonnull align 8 dereferenceable(56) %34, ptr noundef nonnull align 4 dereferenceable(4) %7)
  %36 = load i32, ptr %35, align 4
  %37 = icmp eq i32 %36, 1
  br i1 %37, label %38, label %40

38:                                               ; preds = %32
  %39 = load i32, ptr %6, align 4
  call void @_ZN3spv10spirvbin_t9stripInstEj(ptr noundef nonnull align 8 dereferenceable(473) %10, i32 noundef %39)
  br label %40

40:                                               ; preds = %38, %32, %29
  ret i1 true
}

; Function Attrs: mustprogress nounwind uwtable
define linkonce_odr noundef ptr @_ZNKSt9_Any_data9_M_accessEv(ptr noundef nonnull align 8 dereferenceable(16) %0) #1 comdat align 2 {
  %2 = alloca ptr, align 8
  store ptr %0, ptr %2, align 8
  %3 = load ptr, ptr %2, align 8
  %4 = getelementptr inbounds [16 x i8], ptr %3, i64 0, i64 0
  ret ptr %4
}

; Function Attrs: mustprogress nounwind uwtable
define internal noundef zeroext i1 @"_ZSt13__invoke_implIbRZN3spv10spirvbin_t7dceVarsEvE3$_2JNS0_2OpEjEET_St14__invoke_otherOT0_DpOT1_"(ptr noundef nonnull align 8 dereferenceable(16) %0, ptr noundef nonnull align 4 dereferenceable(4) %1, ptr noundef nonnull align 4 dereferenceable(4) %2) #1 {
  %4 = alloca ptr, align 8
  %5 = alloca ptr, align 8
  %6 = alloca ptr, align 8
  store ptr %0, ptr %4, align 8
  store ptr %1, ptr %5, align 8
  store ptr %2, ptr %6, align 8
  %7 = load ptr, ptr %4, align 8
  %8 = load ptr, ptr %5, align 8
  %9 = load i32, ptr %8, align 4
  %10 = load ptr, ptr %6, align 8
  %11 = load i32, ptr %10, align 4
  %12 = call noundef zeroext i1 @"_ZZN3spv10spirvbin_t7dceVarsEvENK3$_2clENS_2OpEj"(ptr noundef nonnull align 8 dereferenceable(16) %7, i32 noundef %9, i32 noundef %11)
  ret i1 %12
}

; Function Attrs: mustprogress nounwind uwtable
define internal noundef nonnull align 8 dereferenceable(16) ptr @"_ZNKSt9_Any_data9_M_accessIZN3spv10spirvbin_t7dceVarsEvE3$_2EERKT_v"(ptr noundef nonnull align 8 dereferenceable(16) %0) #1 align 2 {
  %2 = alloca ptr, align 8
  store ptr %0, ptr %2, align 8
  %3 = load ptr, ptr %2, align 8
  %4 = call noundef ptr @_ZNKSt9_Any_data9_M_accessEv(ptr noundef nonnull align 8 dereferenceable(16) %3) #2
  ret ptr %4
}

; Function Attrs: mustprogress nounwind uwtable
define internal noundef zeroext i1 @"_ZSt10__invoke_rIbRZN3spv10spirvbin_t7dceVarsEvE3$_2JNS0_2OpEjEENSt9enable_ifIX16is_invocable_r_vIT_T0_DpT1_EES6_E4typeEOS7_DpOS8_"(ptr noundef nonnull align 8 dereferenceable(16) %0, ptr noundef nonnull align 4 dereferenceable(4) %1, ptr noundef nonnull align 4 dereferenceable(4) %2) #1 {
  %4 = alloca ptr, align 8
  %5 = alloca ptr, align 8
  %6 = alloca ptr, align 8
  store ptr %0, ptr %4, align 8
  store ptr %1, ptr %5, align 8
  store ptr %2, ptr %6, align 8
  %7 = load ptr, ptr %4, align 8
  %8 = load ptr, ptr %5, align 8
  %9 = load ptr, ptr %6, align 8
  %10 = call noundef zeroext i1 @"_ZSt13__invoke_implIbRZN3spv10spirvbin_t7dceVarsEvE3$_2JNS0_2OpEjEET_St14__invoke_otherOT0_DpOT1_"(ptr noundef nonnull align 8 dereferenceable(16) %7, ptr noundef nonnull align 4 dereferenceable(4) %8, ptr noundef nonnull align 4 dereferenceable(4) %9)
  ret i1 %10
}

; Function Attrs: mustprogress nounwind uwtable
define internal noundef ptr @"_ZNSt14_Function_base13_Base_managerIZN3spv10spirvbin_t7dceVarsEvE3$_2E14_M_get_pointerERKSt9_Any_data"(ptr noundef nonnull align 8 dereferenceable(16) %0) #1 align 2 {
  %2 = alloca ptr, align 8
  %3 = alloca ptr, align 8
  store ptr %0, ptr %2, align 8
  %4 = load ptr, ptr %2, align 8
  %5 = call noundef nonnull align 8 dereferenceable(16) ptr @"_ZNKSt9_Any_data9_M_accessIZN3spv10spirvbin_t7dceVarsEvE3$_2EERKT_v"(ptr noundef nonnull align 8 dereferenceable(16) %4) #2
  store ptr %5, ptr %3, align 8
  %6 = load ptr, ptr %3, align 8
  ret ptr %6
}

; Function Attrs: mustprogress nounwind uwtable
define internal noundef zeroext i1 @"_ZNSt17_Function_handlerIFbN3spv2OpEjEZNS0_10spirvbin_t7dceVarsEvE3$_2E9_M_invokeERKSt9_Any_dataOS1_Oj"(ptr noundef nonnull align 8 dereferenceable(16) %0, ptr noundef nonnull align 4 dereferenceable(4) %1, ptr noundef nonnull align 4 dereferenceable(4) %2) #1 align 2 {
  %4 = alloca ptr, align 8
  %5 = alloca ptr, align 8
  %6 = alloca ptr, align 8
  store ptr %0, ptr %4, align 8
  store ptr %1, ptr %5, align 8
  store ptr %2, ptr %6, align 8
  %7 = load ptr, ptr %4, align 8
  %8 = call noundef ptr @"_ZNSt14_Function_base13_Base_managerIZN3spv10spirvbin_t7dceVarsEvE3$_2E14_M_get_pointerERKSt9_Any_data"(ptr noundef nonnull align 8 dereferenceable(16) %7) #2
  %9 = load ptr, ptr %5, align 8
  %10 = load ptr, ptr %6, align 8
  %11 = call noundef zeroext i1 @"_ZSt10__invoke_rIbRZN3spv10spirvbin_t7dceVarsEvE3$_2JNS0_2OpEjEENSt9enable_ifIX16is_invocable_r_vIT_T0_DpT1_EES6_E4typeEOS7_DpOS8_"(ptr noundef nonnull align 8 dereferenceable(16) %8, ptr noundef nonnull align 4 dereferenceable(4) %9, ptr noundef nonnull align 4 dereferenceable(4) %10)
  ret i1 %11
}