; Function Attrs: mustprogress nounwind uwtable
define internal noundef zeroext i1 @"_ZNSt17_Function_handlerIFbN3spv2OpEjEZNS0_10spirvbin_t7dceVarsEvE3$_2E9_M_invokeERKSt9_Any_dataOS1_Oj"(ptr nocapture noundef nonnull readonly align 8 dereferenceable(16) %0, ptr nocapture noundef nonnull readonly align 4 dereferenceable(4) %1, ptr nocapture noundef nonnull readonly align 4 dereferenceable(4) %2) #0 align 2 {
  %4 = alloca i32, align 4
  %.val = load ptr, ptr %0, align 8
  %5 = getelementptr inbounds i8, ptr %0, i64 8
  %.val3 = load ptr, ptr %5, align 8
  %.val4 = load i32, ptr %1, align 4
  %.val5 = load i32, ptr %2, align 4
  call void @llvm.lifetime.start.p0(i64 4, ptr nonnull %4)
  switch i32 %.val4, label %"_ZSt10__invoke_rIbRZN3spv10spirvbin_t7dceVarsEvE3$_2JNS0_2OpEjEENSt9enable_ifIX16is_invocable_r_vIT_T0_DpT1_EES6_E4typeEOS7_DpOS8_.exit" [
    i32 59, label %7
    i32 71, label %6
    i32 5, label %6
  ]

6:                                                ; preds = %3, %3
  br label %7

7:                                                ; preds = %6, %3
  %.sink4.i.i.i = phi i32 [ 1, %6 ], [ 2, %3 ]
  %8 = add i32 %.sink4.i.i.i, %.val5
  %9 = getelementptr inbounds i8, ptr %.val, i64 8
  %10 = zext i32 %8 to i64
  %11 = load ptr, ptr %9, align 8
  %12 = getelementptr inbounds i32, ptr %11, i64 %10
  %storemerge.i.i.i = load i32, ptr %12, align 4
  store i32 %storemerge.i.i.i, ptr %4, align 4
  %.not.i.i.i = icmp eq i32 %storemerge.i.i.i, 0
  br i1 %.not.i.i.i, label %"_ZSt10__invoke_rIbRZN3spv10spirvbin_t7dceVarsEvE3$_2JNS0_2OpEjEENSt9enable_ifIX16is_invocable_r_vIT_T0_DpT1_EES6_E4typeEOS7_DpOS8_.exit", label %13

13:                                               ; preds = %7
  %14 = call noundef nonnull align 4 dereferenceable(4) ptr @_ZNSt8__detail9_Map_baseIjSt4pairIKjiESaIS3_ENS_10_Select1stESt8equal_toIjESt4hashIjENS_18_Mod_range_hashingENS_20_Default_ranged_hashENS_20_Prime_rehash_policyENS_17_Hashtable_traitsILb0ELb0ELb1EEELb1EEixERS2_(ptr noundef nonnull align 1 dereferenceable(1) %.val3, ptr noundef nonnull align 4 dereferenceable(4) %4)
  %15 = load i32, ptr %14, align 4
  %16 = icmp eq i32 %15, 1
  br i1 %16, label %17, label %"_ZSt10__invoke_rIbRZN3spv10spirvbin_t7dceVarsEvE3$_2JNS0_2OpEjEENSt9enable_ifIX16is_invocable_r_vIT_T0_DpT1_EES6_E4typeEOS7_DpOS8_.exit"

17:                                               ; preds = %13
  call void @_ZN3spv10spirvbin_t9stripInstEj(ptr noundef nonnull align 8 dereferenceable(473) %.val, i32 noundef %.val5)
  br label %"_ZSt10__invoke_rIbRZN3spv10spirvbin_t7dceVarsEvE3$_2JNS0_2OpEjEENSt9enable_ifIX16is_invocable_r_vIT_T0_DpT1_EES6_E4typeEOS7_DpOS8_.exit"

"_ZSt10__invoke_rIbRZN3spv10spirvbin_t7dceVarsEvE3$_2JNS0_2OpEjEENSt9enable_ifIX16is_invocable_r_vIT_T0_DpT1_EES6_E4typeEOS7_DpOS8_.exit": ; preds = %3, %7, %13, %17
  call void @llvm.lifetime.end.p0(i64 4, ptr nonnull %4)
  ret i1 true
}